target datalayout = "e-m:e-p270:32:32-p271:32:32-p272:64:64-i64:64-i128:128-f80:128-n8:16:32:64-S128"
target triple = "x86_64-pc-linux-gnu"

; Function Attrs: mustprogress uwtable
define void @_ZN32pxrInternal_v0_24__pxrReserved__16HfPluginRegistry18AddPluginReferenceEPNS_12HfPluginBaseE(ptr noundef nonnull align 8 dereferenceable(89) %0, ptr noundef %1) #4 align 2 {
  %3 = alloca ptr, align 8
  %4 = alloca ptr, align 8
  %5 = alloca ptr, align 8
  store ptr %0, ptr %3, align 8
  store ptr %1, ptr %4, align 8
  %6 = load ptr, ptr %3, align 8
  %7 = load ptr, ptr %4, align 8
  %8 = call noundef ptr @_ZN32pxrInternal_v0_24__pxrReserved__16HfPluginRegistry18_GetEntryForPluginEPNS_12HfPluginBaseE(ptr noundef nonnull align 8 dereferenceable(89) %6, ptr noundef %7)
  store ptr %8, ptr %5, align 8
  %9 = load ptr, ptr %5, align 8
  %10 = icmp eq ptr %9, null
  br i1 %10, label %11, label %12

11:                                               ; preds = %2
  br label %14

12:                                               ; preds = %2
  %13 = load ptr, ptr %5, align 8
  call void @_ZN32pxrInternal_v0_24__pxrReserved__14Hf_PluginEntry11IncRefCountEv(ptr noundef nonnull align 8 dereferenceable(64) %13)
  br label %14

14:                                               ; preds = %12, %11
  ret void
}