; Function Attrs: mustprogress uwtable
define void @_ZN32pxrInternal_v0_24__pxrReserved__16HfPluginRegistry18AddPluginReferenceEPNS_12HfPluginBaseE(ptr noundef nonnull align 8 dereferenceable(89) %0, ptr noundef %1) local_unnamed_addr #4 align 2 {
  %3 = tail call noundef ptr @_ZN32pxrInternal_v0_24__pxrReserved__16HfPluginRegistry18_GetEntryForPluginEPNS_12HfPluginBaseE(ptr noundef nonnull align 8 dereferenceable(89) %0, ptr noundef %1)
  %4 = icmp eq ptr %3, null
  br i1 %4, label %6, label %5

5:                                                ; preds = %2
  tail call void @_ZN32pxrInternal_v0_24__pxrReserved__14Hf_PluginEntry11IncRefCountEv(ptr noundef nonnull align 8 dereferenceable(64) %3)
  br label %6

6:                                                ; preds = %2, %5
  ret void
}